target datalayout = "e-m:e-p270:32:32-p271:32:32-p272:64:64-i64:64-i128:128-f80:128-n8:16:32:64-S128"
target triple = "x86_64-pc-linux-gnu"

%struct.Saig_Tsim_t_ = type { ptr, i32, ptr, ptr, i32, i32, i32, ptr, ptr, i32 }

; Function Attrs: inlinehint nounwind uwtable
define internal void @Saig_TsiSetNext(ptr noundef %0, i32 noundef %1, ptr noundef %2) #4 {
  %4 = alloca ptr, align 8
  %5 = alloca i32, align 4
  %6 = alloca ptr, align 8
  store ptr %0, ptr %4, align 8, !tbaa !45
  store i32 %1, ptr %5, align 4, !tbaa !22
  store ptr %2, ptr %6, align 8, !tbaa !45
  %7 = load ptr, ptr %6, align 8, !tbaa !45
  %8 = load ptr, ptr %4, align 8, !tbaa !45
  %9 = load i32, ptr %5, align 4, !tbaa !22
  %10 = sext i32 %9 to i64
  %11 = getelementptr inbounds i32, ptr %8, i64 %10
  store ptr %7, ptr %11, align 8, !tbaa !45
  ret void
}

; Function Attrs: nounwind uwtable
define i32 @Saig_TsiStateHash(ptr noundef %0, i32 noundef %1, i32 noundef %2) #0 {
  %4 = alloca ptr, align 8
  %5 = alloca i32, align 4
  %6 = alloca i32, align 4
  %7 = alloca i32, align 4
  %8 = alloca i32, align 4
  store ptr %0, ptr %4, align 8, !tbaa !45
  store i32 %1, ptr %5, align 4, !tbaa !22
  store i32 %2, ptr %6, align 4, !tbaa !22
  call void @llvm.lifetime.start.p0(i64 4, ptr %7) #9
  call void @llvm.lifetime.start.p0(i64 4, ptr %8) #9
  store i32 0, ptr %7, align 4, !tbaa !22
  store i32 0, ptr %8, align 4, !tbaa !22
  br label %9

9:                                                ; preds = %27, %3
  %10 = load i32, ptr %8, align 4, !tbaa !22
  %11 = load i32, ptr %5, align 4, !tbaa !22
  %12 = icmp slt i32 %10, %11
  br i1 %12, label %13, label %30

13:                                               ; preds = %9
  %14 = load ptr, ptr %4, align 8, !tbaa !45
  %15 = load i32, ptr %8, align 4, !tbaa !22
  %16 = sext i32 %15 to i64
  %17 = getelementptr inbounds i32, ptr %14, i64 %16
  %18 = load i32, ptr %17, align 4, !tbaa !22
  %19 = load i32, ptr %8, align 4, !tbaa !22
  %20 = and i32 %19, 127
  %21 = sext i32 %20 to i64
  %22 = getelementptr inbounds [128 x i32], ptr @Saig_TsiStateHash.s_FPrimes, i64 0, i64 %21
  %23 = load i32, ptr %22, align 4, !tbaa !22
  %24 = mul i32 %18, %23
  %25 = load i32, ptr %7, align 4, !tbaa !22
  %26 = xor i32 %25, %24
  store i32 %26, ptr %7, align 4, !tbaa !22
  br label %27

27:                                               ; preds = %13
  %28 = load i32, ptr %8, align 4, !tbaa !22
  %29 = add nsw i32 %28, 1
  store i32 %29, ptr %8, align 4, !tbaa !22
  br label %9, !llvm.loop !46

30:                                               ; preds = %9
  %31 = load i32, ptr %7, align 4, !tbaa !22
  %32 = load i32, ptr %6, align 4, !tbaa !22
  %33 = urem i32 %31, %32
  call void @llvm.lifetime.end.p0(i64 4, ptr %8) #9
  call void @llvm.lifetime.end.p0(i64 4, ptr %7) #9
  ret i32 %33
}

; Function Attrs: nounwind uwtable
define void @Saig_TsiStateInsert(ptr noundef %0, ptr noundef %1, i32 noundef %2) #0 {
  %4 = alloca ptr, align 8
  %5 = alloca ptr, align 8
  %6 = alloca i32, align 4
  %7 = alloca i32, align 4
  store ptr %0, ptr %4, align 8, !tbaa !8
  store ptr %1, ptr %5, align 8, !tbaa !45
  store i32 %2, ptr %6, align 4, !tbaa !22
  call void @llvm.lifetime.start.p0(i64 4, ptr %7) #9
  %8 = load ptr, ptr %5, align 8, !tbaa !45
  %9 = load i32, ptr %6, align 4, !tbaa !22
  %10 = load ptr, ptr %4, align 8, !tbaa !8
  %11 = getelementptr inbounds nuw %struct.Saig_Tsim_t_, ptr %10, i32 0, i32 9
  %12 = load i32, ptr %11, align 8, !tbaa !20
  %13 = call i32 @Saig_TsiStateHash(ptr noundef %8, i32 noundef %9, i32 noundef %12)
  store i32 %13, ptr %7, align 4, !tbaa !22
  %14 = load ptr, ptr %5, align 8, !tbaa !45
  %15 = load i32, ptr %6, align 4, !tbaa !22
  %16 = load ptr, ptr %4, align 8, !tbaa !8
  %17 = getelementptr inbounds nuw %struct.Saig_Tsim_t_, ptr %16, i32 0, i32 8
  %18 = load ptr, ptr %17, align 8, !tbaa !21
  %19 = load i32, ptr %7, align 4, !tbaa !22
  %20 = sext i32 %19 to i64
  %21 = getelementptr inbounds ptr, ptr %18, i64 %20
  %22 = load ptr, ptr %21, align 8, !tbaa !45
  call void @Saig_TsiSetNext(ptr noundef %14, i32 noundef %15, ptr noundef %22)
  %23 = load ptr, ptr %5, align 8, !tbaa !45
  %24 = load ptr, ptr %4, align 8, !tbaa !8
  %25 = getelementptr inbounds nuw %struct.Saig_Tsim_t_, ptr %24, i32 0, i32 8
  %26 = load ptr, ptr %25, align 8, !tbaa !21
  %27 = load i32, ptr %7, align 4, !tbaa !22
  %28 = sext i32 %27 to i64
  %29 = getelementptr inbounds ptr, ptr %26, i64 %28
  store ptr %23, ptr %29, align 8, !tbaa !45
  call void @llvm.lifetime.end.p0(i64 4, ptr %7) #9
  ret void
}